target datalayout = "e-m:e-p270:32:32-p271:32:32-p272:64:64-i64:64-i128:128-f80:128-n8:16:32:64-S128"
target triple = "x86_64-pc-linux-gnu"

%struct.Ppoly_t = type { ptr, i64 }
%struct.vconfig_s = type { i32, i32, ptr, ptr, ptr, ptr, ptr }
%struct.Pxy_t = type { double, double }

; Function Attrs: nounwind uwtable
define ptr @Pobsopen(ptr noundef %0, i32 noundef %1) #0 {
  %3 = alloca ptr, align 8
  %4 = alloca ptr, align 8
  %5 = alloca i32, align 4
  %6 = alloca ptr, align 8
  %7 = alloca i32, align 4
  %8 = alloca i32, align 4
  %9 = alloca i32, align 4
  %10 = alloca i32, align 4
  %11 = alloca i32, align 4
  %12 = alloca i32, align 4
  %13 = alloca i64, align 8
  store ptr %0, ptr %4, align 8, !tbaa !3
  store i32 %1, ptr %5, align 4, !tbaa !8
  call void @llvm.lifetime.start.p0(i64 8, ptr %6) #10
  call void @llvm.lifetime.start.p0(i64 4, ptr %7) #10
  call void @llvm.lifetime.start.p0(i64 4, ptr %8) #10
  call void @llvm.lifetime.start.p0(i64 4, ptr %9) #10
  call void @llvm.lifetime.start.p0(i64 4, ptr %10) #10
  call void @llvm.lifetime.start.p0(i64 4, ptr %11) #10
  %14 = call noalias ptr @malloc(i64 noundef 48) #11
  store ptr %14, ptr %6, align 8, !tbaa !10
  %15 = load ptr, ptr %6, align 8, !tbaa !10
  %16 = icmp ne ptr %15, null
  br i1 %16, label %18, label %17

17:                                               ; preds = %2
  store ptr null, ptr %3, align 8
  store i32 1, ptr %12, align 4
  br label %206

18:                                               ; preds = %2
  call void @llvm.lifetime.start.p0(i64 8, ptr %13) #10
  store i64 0, ptr %13, align 8, !tbaa !12
  store i32 0, ptr %7, align 4, !tbaa !8
  br label %19

19:                                               ; preds = %33, %18
  %20 = load i32, ptr %7, align 4, !tbaa !8
  %21 = load i32, ptr %5, align 4, !tbaa !8
  %22 = icmp slt i32 %20, %21
  br i1 %22, label %23, label %36

23:                                               ; preds = %19
  %24 = load ptr, ptr %4, align 8, !tbaa !3
  %25 = load i32, ptr %7, align 4, !tbaa !8
  %26 = sext i32 %25 to i64
  %27 = getelementptr inbounds ptr, ptr %24, i64 %26
  %28 = load ptr, ptr %27, align 8, !tbaa !14
  %29 = getelementptr inbounds nuw %struct.Ppoly_t, ptr %28, i32 0, i32 1
  %30 = load i64, ptr %29, align 8, !tbaa !16
  %31 = load i64, ptr %13, align 8, !tbaa !12
  %32 = add i64 %31, %30
  store i64 %32, ptr %13, align 8, !tbaa !12
  br label %33

33:                                               ; preds = %23
  %34 = load i32, ptr %7, align 4, !tbaa !8
  %35 = add nsw i32 %34, 1
  store i32 %35, ptr %7, align 4, !tbaa !8
  br label %19, !llvm.loop !19

36:                                               ; preds = %19
  %37 = load i64, ptr %13, align 8, !tbaa !12
  %38 = icmp ugt i64 %37, 2147483647
  br i1 %38, label %39, label %41

39:                                               ; preds = %36
  %40 = load ptr, ptr %6, align 8, !tbaa !10
  call void @free(ptr noundef %40) #10
  store ptr null, ptr %3, align 8
  store i32 1, ptr %12, align 4
  br label %205

41:                                               ; preds = %36
  %42 = load i64, ptr %13, align 8, !tbaa !12
  %43 = call noalias ptr @calloc(i64 noundef %42, i64 noundef 16) #12
  %44 = load ptr, ptr %6, align 8, !tbaa !10
  %45 = getelementptr inbounds nuw %struct.vconfig_s, ptr %44, i32 0, i32 2
  store ptr %43, ptr %45, align 8, !tbaa !21
  %46 = load i32, ptr %5, align 4, !tbaa !8
  %47 = sext i32 %46 to i64
  %48 = add i64 %47, 1
  %49 = call noalias ptr @calloc(i64 noundef %48, i64 noundef 4) #12
  %50 = load ptr, ptr %6, align 8, !tbaa !10
  %51 = getelementptr inbounds nuw %struct.vconfig_s, ptr %50, i32 0, i32 3
  store ptr %49, ptr %51, align 8, !tbaa !25
  %52 = load i64, ptr %13, align 8, !tbaa !12
  %53 = call noalias ptr @calloc(i64 noundef %52, i64 noundef 4) #12
  %54 = load ptr, ptr %6, align 8, !tbaa !10
  %55 = getelementptr inbounds nuw %struct.vconfig_s, ptr %54, i32 0, i32 4
  store ptr %53, ptr %55, align 8, !tbaa !26
  %56 = load i64, ptr %13, align 8, !tbaa !12
  %57 = call noalias ptr @calloc(i64 noundef %56, i64 noundef 4) #12
  %58 = load ptr, ptr %6, align 8, !tbaa !10
  %59 = getelementptr inbounds nuw %struct.vconfig_s, ptr %58, i32 0, i32 5
  store ptr %57, ptr %59, align 8, !tbaa !27
  %60 = load i64, ptr %13, align 8, !tbaa !12
  %61 = trunc i64 %60 to i32
  %62 = load ptr, ptr %6, align 8, !tbaa !10
  %63 = getelementptr inbounds nuw %struct.vconfig_s, ptr %62, i32 0, i32 1
  store i32 %61, ptr %63, align 4, !tbaa !28
  %64 = load i32, ptr %5, align 4, !tbaa !8
  %65 = load ptr, ptr %6, align 8, !tbaa !10
  %66 = getelementptr inbounds nuw %struct.vconfig_s, ptr %65, i32 0, i32 0
  store i32 %64, ptr %66, align 8, !tbaa !29
  %67 = load ptr, ptr %6, align 8, !tbaa !10
  %68 = getelementptr inbounds nuw %struct.vconfig_s, ptr %67, i32 0, i32 3
  %69 = load ptr, ptr %68, align 8, !tbaa !25
  %70 = icmp eq ptr %69, null
  br i1 %70, label %89, label %71

71:                                               ; preds = %41
  %72 = load i64, ptr %13, align 8, !tbaa !12
  %73 = icmp ugt i64 %72, 0
  br i1 %73, label %74, label %103

74:                                               ; preds = %71
  %75 = load ptr, ptr %6, align 8, !tbaa !10
  %76 = getelementptr inbounds nuw %struct.vconfig_s, ptr %75, i32 0, i32 2
  %77 = load ptr, ptr %76, align 8, !tbaa !21
  %78 = icmp eq ptr %77, null
  br i1 %78, label %89, label %79

79:                                               ; preds = %74
  %80 = load ptr, ptr %6, align 8, !tbaa !10
  %81 = getelementptr inbounds nuw %struct.vconfig_s, ptr %80, i32 0, i32 4
  %82 = load ptr, ptr %81, align 8, !tbaa !26
  %83 = icmp eq ptr %82, null
  br i1 %83, label %89, label %84

84:                                               ; preds = %79
  %85 = load ptr, ptr %6, align 8, !tbaa !10
  %86 = getelementptr inbounds nuw %struct.vconfig_s, ptr %85, i32 0, i32 5
  %87 = load ptr, ptr %86, align 8, !tbaa !27
  %88 = icmp eq ptr %87, null
  br i1 %88, label %89, label %103

89:                                               ; preds = %84, %79, %74, %41
  %90 = load ptr, ptr %6, align 8, !tbaa !10
  %91 = getelementptr inbounds nuw %struct.vconfig_s, ptr %90, i32 0, i32 5
  %92 = load ptr, ptr %91, align 8, !tbaa !27
  call void @free(ptr noundef %92) #10
  %93 = load ptr, ptr %6, align 8, !tbaa !10
  %94 = getelementptr inbounds nuw %struct.vconfig_s, ptr %93, i32 0, i32 4
  %95 = load ptr, ptr %94, align 8, !tbaa !26
  call void @free(ptr noundef %95) #10
  %96 = load ptr, ptr %6, align 8, !tbaa !10
  %97 = getelementptr inbounds nuw %struct.vconfig_s, ptr %96, i32 0, i32 3
  %98 = load ptr, ptr %97, align 8, !tbaa !25
  call void @free(ptr noundef %98) #10
  %99 = load ptr, ptr %6, align 8, !tbaa !10
  %100 = getelementptr inbounds nuw %struct.vconfig_s, ptr %99, i32 0, i32 2
  %101 = load ptr, ptr %100, align 8, !tbaa !21
  call void @free(ptr noundef %101) #10
  %102 = load ptr, ptr %6, align 8, !tbaa !10
  call void @free(ptr noundef %102) #10
  store ptr null, ptr %3, align 8
  store i32 1, ptr %12, align 4
  br label %205

103:                                              ; preds = %84, %71
  store i32 0, ptr %9, align 4, !tbaa !8
  store i32 0, ptr %7, align 4, !tbaa !8
  br label %104

104:                                              ; preds = %192, %103
  %105 = load i32, ptr %7, align 4, !tbaa !8
  %106 = load i32, ptr %5, align 4, !tbaa !8
  %107 = icmp slt i32 %105, %106
  br i1 %107, label %108, label %195

108:                                              ; preds = %104
  %109 = load i32, ptr %9, align 4, !tbaa !8
  store i32 %109, ptr %10, align 4, !tbaa !8
  %110 = load i32, ptr %10, align 4, !tbaa !8
  %111 = load ptr, ptr %6, align 8, !tbaa !10
  %112 = getelementptr inbounds nuw %struct.vconfig_s, ptr %111, i32 0, i32 3
  %113 = load ptr, ptr %112, align 8, !tbaa !25
  %114 = load i32, ptr %7, align 4, !tbaa !8
  %115 = sext i32 %114 to i64
  %116 = getelementptr inbounds i32, ptr %113, i64 %115
  store i32 %110, ptr %116, align 4, !tbaa !8
  %117 = load i32, ptr %10, align 4, !tbaa !8
  %118 = load ptr, ptr %4, align 8, !tbaa !3
  %119 = load i32, ptr %7, align 4, !tbaa !8
  %120 = sext i32 %119 to i64
  %121 = getelementptr inbounds ptr, ptr %118, i64 %120
  %122 = load ptr, ptr %121, align 8, !tbaa !14
  %123 = getelementptr inbounds nuw %struct.Ppoly_t, ptr %122, i32 0, i32 1
  %124 = load i64, ptr %123, align 8, !tbaa !16
  %125 = trunc i64 %124 to i32
  %126 = add nsw i32 %117, %125
  %127 = sub nsw i32 %126, 1
  store i32 %127, ptr %11, align 4, !tbaa !8
  store i32 0, ptr %8, align 4, !tbaa !8
  br label %128

128:                                              ; preds = %174, %108
  %129 = load i32, ptr %8, align 4, !tbaa !8
  %130 = load ptr, ptr %4, align 8, !tbaa !3
  %131 = load i32, ptr %7, align 4, !tbaa !8
  %132 = sext i32 %131 to i64
  %133 = getelementptr inbounds ptr, ptr %130, i64 %132
  %134 = load ptr, ptr %133, align 8, !tbaa !14
  %135 = getelementptr inbounds nuw %struct.Ppoly_t, ptr %134, i32 0, i32 1
  %136 = load i64, ptr %135, align 8, !tbaa !16
  %137 = trunc i64 %136 to i32
  %138 = icmp slt i32 %129, %137
  br i1 %138, label %139, label %177

139:                                              ; preds = %128
  %140 = load ptr, ptr %6, align 8, !tbaa !10
  %141 = getelementptr inbounds nuw %struct.vconfig_s, ptr %140, i32 0, i32 2
  %142 = load ptr, ptr %141, align 8, !tbaa !21
  %143 = load i32, ptr %9, align 4, !tbaa !8
  %144 = sext i32 %143 to i64
  %145 = getelementptr inbounds %struct.Pxy_t, ptr %142, i64 %144
  %146 = load ptr, ptr %4, align 8, !tbaa !3
  %147 = load i32, ptr %7, align 4, !tbaa !8
  %148 = sext i32 %147 to i64
  %149 = getelementptr inbounds ptr, ptr %146, i64 %148
  %150 = load ptr, ptr %149, align 8, !tbaa !14
  %151 = getelementptr inbounds nuw %struct.Ppoly_t, ptr %150, i32 0, i32 0
  %152 = load ptr, ptr %151, align 8, !tbaa !30
  %153 = load i32, ptr %8, align 4, !tbaa !8
  %154 = sext i32 %153 to i64
  %155 = getelementptr inbounds %struct.Pxy_t, ptr %152, i64 %154
  call void @llvm.memcpy.p0.p0.i64(ptr align 8 %145, ptr align 8 %155, i64 16, i1 false), !tbaa.struct !31
  %156 = load i32, ptr %9, align 4, !tbaa !8
  %157 = add nsw i32 %156, 1
  %158 = load ptr, ptr %6, align 8, !tbaa !10
  %159 = getelementptr inbounds nuw %struct.vconfig_s, ptr %158, i32 0, i32 4
  %160 = load ptr, ptr %159, align 8, !tbaa !26
  %161 = load i32, ptr %9, align 4, !tbaa !8
  %162 = sext i32 %161 to i64
  %163 = getelementptr inbounds i32, ptr %160, i64 %162
  store i32 %157, ptr %163, align 4, !tbaa !8
  %164 = load i32, ptr %9, align 4, !tbaa !8
  %165 = sub nsw i32 %164, 1
  %166 = load ptr, ptr %6, align 8, !tbaa !10
  %167 = getelementptr inbounds nuw %struct.vconfig_s, ptr %166, i32 0, i32 5
  %168 = load ptr, ptr %167, align 8, !tbaa !27
  %169 = load i32, ptr %9, align 4, !tbaa !8
  %170 = sext i32 %169 to i64
  %171 = getelementptr inbounds i32, ptr %168, i64 %170
  store i32 %165, ptr %171, align 4, !tbaa !8
  %172 = load i32, ptr %9, align 4, !tbaa !8
  %173 = add nsw i32 %172, 1
  store i32 %173, ptr %9, align 4, !tbaa !8
  br label %174

174:                                              ; preds = %139
  %175 = load i32, ptr %8, align 4, !tbaa !8
  %176 = add nsw i32 %175, 1
  store i32 %176, ptr %8, align 4, !tbaa !8
  br label %128, !llvm.loop !34

177:                                              ; preds = %128
  %178 = load i32, ptr %10, align 4, !tbaa !8
  %179 = load ptr, ptr %6, align 8, !tbaa !10
  %180 = getelementptr inbounds nuw %struct.vconfig_s, ptr %179, i32 0, i32 4
  %181 = load ptr, ptr %180, align 8, !tbaa !26
  %182 = load i32, ptr %11, align 4, !tbaa !8
  %183 = sext i32 %182 to i64
  %184 = getelementptr inbounds i32, ptr %181, i64 %183
  store i32 %178, ptr %184, align 4, !tbaa !8
  %185 = load i32, ptr %11, align 4, !tbaa !8
  %186 = load ptr, ptr %6, align 8, !tbaa !10
  %187 = getelementptr inbounds nuw %struct.vconfig_s, ptr %186, i32 0, i32 5
  %188 = load ptr, ptr %187, align 8, !tbaa !27
  %189 = load i32, ptr %10, align 4, !tbaa !8
  %190 = sext i32 %189 to i64
  %191 = getelementptr inbounds i32, ptr %188, i64 %190
  store i32 %185, ptr %191, align 4, !tbaa !8
  br label %192

192:                                              ; preds = %177
  %193 = load i32, ptr %7, align 4, !tbaa !8
  %194 = add nsw i32 %193, 1
  store i32 %194, ptr %7, align 4, !tbaa !8
  br label %104, !llvm.loop !35

195:                                              ; preds = %104
  %196 = load i32, ptr %9, align 4, !tbaa !8
  %197 = load ptr, ptr %6, align 8, !tbaa !10
  %198 = getelementptr inbounds nuw %struct.vconfig_s, ptr %197, i32 0, i32 3
  %199 = load ptr, ptr %198, align 8, !tbaa !25
  %200 = load i32, ptr %7, align 4, !tbaa !8
  %201 = sext i32 %200 to i64
  %202 = getelementptr inbounds i32, ptr %199, i64 %201
  store i32 %196, ptr %202, align 4, !tbaa !8
  %203 = load ptr, ptr %6, align 8, !tbaa !10
  call void @visibility(ptr noundef %203)
  %204 = load ptr, ptr %6, align 8, !tbaa !10
  store ptr %204, ptr %3, align 8
  store i32 1, ptr %12, align 4
  br label %205

205:                                              ; preds = %195, %89, %39
  call void @llvm.lifetime.end.p0(i64 8, ptr %13) #10
  br label %206

206:                                              ; preds = %205, %17
  call void @llvm.lifetime.end.p0(i64 4, ptr %11) #10
  call void @llvm.lifetime.end.p0(i64 4, ptr %10) #10
  call void @llvm.lifetime.end.p0(i64 4, ptr %9) #10
  call void @llvm.lifetime.end.p0(i64 4, ptr %8) #10
  call void @llvm.lifetime.end.p0(i64 4, ptr %7) #10
  call void @llvm.lifetime.end.p0(i64 8, ptr %6) #10
  %207 = load ptr, ptr %3, align 8
  ret ptr %207
}