; Function Attrs: nounwind uwtable
define noundef ptr @Pobsopen(ptr noundef readonly captures(none) %0, i32 noundef %1) local_unnamed_addr #0 {
  %3 = tail call noalias dereferenceable_or_null(48) ptr @malloc(i64 noundef 48) #10
  %.not = icmp eq ptr %3, null
  br i1 %.not, label %58, label %.preheader

.preheader:                                       ; preds = %2
  %4 = icmp sgt i32 %1, 0
  br i1 %4, label %.lr.ph.preheader, label %._crit_edge.thread

.lr.ph.preheader:                                 ; preds = %.preheader
  %wide.trip.count = zext nneg i32 %1 to i64
  br label %.lr.ph

.lr.ph:                                           ; preds = %.lr.ph.preheader, %.lr.ph
  %indvars.iv = phi i64 [ 0, %.lr.ph.preheader ], [ %indvars.iv.next, %.lr.ph ]
  %.079 = phi i64 [ 0, %.lr.ph.preheader ], [ %9, %.lr.ph ]
  %5 = getelementptr inbounds nuw ptr, ptr %0, i64 %indvars.iv
  %6 = load ptr, ptr %5, align 8, !tbaa !3
  %7 = getelementptr inbounds nuw i8, ptr %6, i64 8
  %8 = load i64, ptr %7, align 8, !tbaa !8
  %9 = add i64 %8, %.079
  %indvars.iv.next = add nuw nsw i64 %indvars.iv, 1
  %exitcond.not = icmp eq i64 %indvars.iv.next, %wide.trip.count
  br i1 %exitcond.not, label %._crit_edge, label %.lr.ph, !llvm.loop !12

._crit_edge:                                      ; preds = %.lr.ph
  %10 = icmp ugt i64 %9, 2147483647
  br i1 %10, label %11, label %._crit_edge.thread

11:                                               ; preds = %._crit_edge
  tail call void @free(ptr noundef %3) #11
  br label %58

._crit_edge.thread:                               ; preds = %.preheader, %._crit_edge
  %.0.lcssa109 = phi i64 [ %9, %._crit_edge ], [ 0, %.preheader ]
  %12 = tail call noalias ptr @calloc(i64 noundef %.0.lcssa109, i64 noundef 16) #12
  %13 = getelementptr inbounds nuw i8, ptr %3, i64 8
  store ptr %12, ptr %13, align 8, !tbaa !14
  %14 = sext i32 %1 to i64
  %15 = add nsw i64 %14, 1
  %16 = tail call noalias ptr @calloc(i64 noundef %15, i64 noundef 4) #12
  %17 = getelementptr inbounds nuw i8, ptr %3, i64 16
  store ptr %16, ptr %17, align 8, !tbaa !19
  %18 = tail call noalias ptr @calloc(i64 noundef %.0.lcssa109, i64 noundef 4) #12
  %19 = getelementptr inbounds nuw i8, ptr %3, i64 24
  store ptr %18, ptr %19, align 8, !tbaa !20
  %20 = tail call noalias ptr @calloc(i64 noundef %.0.lcssa109, i64 noundef 4) #12
  %21 = getelementptr inbounds nuw i8, ptr %3, i64 32
  store ptr %20, ptr %21, align 8, !tbaa !21
  %22 = trunc nuw nsw i64 %.0.lcssa109 to i32
  %23 = getelementptr inbounds nuw i8, ptr %3, i64 4
  store i32 %22, ptr %23, align 4, !tbaa !22
  store i32 %1, ptr %3, align 8, !tbaa !23
  %24 = icmp eq ptr %16, null
  br i1 %24, label %30, label %25

25:                                               ; preds = %._crit_edge.thread
  %.not76 = icmp eq i64 %.0.lcssa109, 0
  br i1 %.not76, label %31, label %26

26:                                               ; preds = %25
  %27 = icmp eq ptr %12, null
  %28 = icmp eq ptr %18, null
  %or.cond = or i1 %27, %28
  %29 = icmp eq ptr %20, null
  %or.cond77 = or i1 %or.cond, %29
  br i1 %or.cond77, label %30, label %31

30:                                               ; preds = %26, %._crit_edge.thread
  tail call void @free(ptr noundef %20) #11
  tail call void @free(ptr noundef %18) #11
  tail call void @free(ptr noundef %16) #11
  tail call void @free(ptr noundef %12) #11
  tail call void @free(ptr noundef nonnull %3) #11
  br label %58

31:                                               ; preds = %26, %25
  br i1 %4, label %.lr.ph89.preheader, label %._crit_edge90

.lr.ph89.preheader:                               ; preds = %31
  %wide.trip.count106 = zext nneg i32 %1 to i64
  br label %.lr.ph89

.lr.ph89:                                         ; preds = %.lr.ph89.preheader, %._crit_edge84
  %indvars.iv103 = phi i64 [ 0, %.lr.ph89.preheader ], [ %indvars.iv.next104, %._crit_edge84 ]
  %.07186 = phi i32 [ 0, %.lr.ph89.preheader ], [ %.172.lcssa, %._crit_edge84 ]
  %32 = getelementptr inbounds nuw i32, ptr %16, i64 %indvars.iv103
  store i32 %.07186, ptr %32, align 4, !tbaa !24
  %33 = getelementptr inbounds nuw ptr, ptr %0, i64 %indvars.iv103
  %34 = load ptr, ptr %33, align 8, !tbaa !3
  %35 = getelementptr inbounds nuw i8, ptr %34, i64 8
  %36 = load i64, ptr %35, align 8, !tbaa !8
  %37 = trunc i64 %36 to i32
  %38 = add i32 %.07186, -1
  %39 = add i32 %38, %37
  %40 = icmp sgt i32 %37, 0
  %41 = sext i32 %.07186 to i64
  br i1 %40, label %.lr.ph83, label %._crit_edge84

.lr.ph83:                                         ; preds = %.lr.ph89, %.lr.ph83
  %indvars.iv98 = phi i64 [ %indvars.iv.next99, %.lr.ph83 ], [ 0, %.lr.ph89 ]
  %indvars.iv96 = phi i64 [ %indvars.iv.next97, %.lr.ph83 ], [ %41, %.lr.ph89 ]
  %42 = getelementptr inbounds %struct.Pxy_t, ptr %12, i64 %indvars.iv96
  %43 = load ptr, ptr %34, align 8, !tbaa !25
  %44 = getelementptr inbounds nuw %struct.Pxy_t, ptr %43, i64 %indvars.iv98
  tail call void @llvm.memcpy.p0.p0.i64(ptr noundef nonnull align 8 dereferenceable(16) %42, ptr noundef nonnull align 8 dereferenceable(16) %44, i64 16, i1 false), !tbaa.struct !26
  %indvars.iv.next97 = add nsw i64 %indvars.iv96, 1
  %45 = getelementptr inbounds i32, ptr %18, i64 %indvars.iv96
  %46 = trunc nsw i64 %indvars.iv.next97 to i32
  store i32 %46, ptr %45, align 4, !tbaa !24
  %47 = getelementptr inbounds i32, ptr %20, i64 %indvars.iv96
  %48 = trunc i64 %indvars.iv96 to i32
  %49 = add i32 %48, -1
  store i32 %49, ptr %47, align 4, !tbaa !24
  %indvars.iv.next99 = add nuw nsw i64 %indvars.iv98, 1
  %50 = load i64, ptr %35, align 8, !tbaa !8
  %sext = shl i64 %50, 32
  %51 = ashr exact i64 %sext, 32
  %52 = icmp slt i64 %indvars.iv.next99, %51
  br i1 %52, label %.lr.ph83, label %._crit_edge84, !llvm.loop !29

._crit_edge84:                                    ; preds = %.lr.ph83, %.lr.ph89
  %.172.lcssa = phi i32 [ %.07186, %.lr.ph89 ], [ %46, %.lr.ph83 ]
  %53 = sext i32 %39 to i64
  %54 = getelementptr inbounds i32, ptr %18, i64 %53
  store i32 %.07186, ptr %54, align 4, !tbaa !24
  %55 = getelementptr inbounds i32, ptr %20, i64 %41
  store i32 %39, ptr %55, align 4, !tbaa !24
  %indvars.iv.next104 = add nuw nsw i64 %indvars.iv103, 1
  %exitcond107.not = icmp eq i64 %indvars.iv.next104, %wide.trip.count106
  br i1 %exitcond107.not, label %._crit_edge90.loopexit, label %.lr.ph89, !llvm.loop !30

._crit_edge90.loopexit:                           ; preds = %._crit_edge84
  %56 = zext nneg i32 %1 to i64
  br label %._crit_edge90

._crit_edge90:                                    ; preds = %31, %._crit_edge90.loopexit
  %.071.lcssa = phi i32 [ %.172.lcssa, %._crit_edge90.loopexit ], [ 0, %31 ]
  %.170.lcssa = phi i64 [ %56, %._crit_edge90.loopexit ], [ 0, %31 ]
  %57 = getelementptr inbounds nuw i32, ptr %16, i64 %.170.lcssa
  store i32 %.071.lcssa, ptr %57, align 4, !tbaa !24
  tail call void @visibility(ptr noundef nonnull %3) #11
  br label %58

58:                                               ; preds = %11, %30, %._crit_edge90, %2
  %.068 = phi ptr [ null, %2 ], [ null, %11 ], [ null, %30 ], [ %3, %._crit_edge90 ]
  ret ptr %.068
}